Certificate:
    Data:
        Version: 3 (0x2)
        Serial Number:
            0f:50:11:d8:8f:07:09:bf
        Signature Algorithm: sha1WithRSAEncryption
        Issuer: C=US, O=Apple Inc., OU=Apple Worldwide Developer Relations, CN=Apple Worldwide Developer Relations Certification Authority
        Validity
            Not Before: Jun 26 21:18:40 2012 GMT
            Not After : Jun 26 21:18:40 2013 GMT
        Subject: UID=pass.void-star.com.meepedoo, CN=Pass Type ID: pass.void-star.com.meepedoo, OU=UL736KYQR9, O=Eric Monti, C=US
        Subject Public Key Info:
            Public Key Algorithm: rsaEncryption
            RSA Public Key: (2048 bit)
                Modulus (2048 bit):
                    00:af:f9:a6:9f:c0:8b:a5:56:f2:b6:97:0a:86:42:
                    d0:f1:54:01:98:95:9f:d9:69:2b:9c:be:b0:b5:f4:
                    a4:ad:9e:e6:ef:8e:a5:dc:50:d0:ce:2a:89:a9:41:
                    ce:44:36:af:90:33:e7:56:76:9e:68:91:df:c6:e7:
                    b8:21:f2:d5:75:d2:2a:17:3a:9d:4a:e0:cc:d2:94:
                    90:e7:f2:36:2f:1c:41:00:02:76:45:fe:c2:6a:fc:
                    36:96:e7:7e:59:00:f2:85:9e:31:ff:a3:9b:a0:b8:
                    6d:95:9e:e4:f1:c4:d0:e9:7c:70:61:52:03:39:5c:
                    b8:8a:34:69:22:82:c5:44:f9:cd:a1:25:57:26:86:
                    e4:31:d5:08:c9:9d:5f:73:44:10:21:6d:99:90:74:
                    f6:69:fb:20:de:a9:46:49:a3:a9:96:ab:66:44:e6:
                    bd:56:65:8e:7d:dd:07:7e:71:bd:13:0f:b1:50:07:
                    af:eb:71:78:af:46:d5:71:39:da:ed:f2:d1:db:8d:
                    81:64:7f:56:c6:87:f1:7e:a5:a3:f4:9f:02:01:b9:
                    d0:36:7f:87:f2:0d:d6:93:4e:cb:d8:32:9c:5a:ea:
                    44:07:64:6a:9f:1c:14:8e:9a:3a:0e:a3:86:2c:e8:
                    20:2a:f1:32:e0:11:2a:13:8a:d3:4c:73:5e:ab:70:
                    fa:4d
                Exponent: 65537 (0x10001)
        X509v3 extensions:
            Authority Information Access: 
                OCSP - URI:http://ocsp.apple.com/ocsp-wwdr03

            X509v3 Subject Key Identifier: 
                02:87:24:00:CA:53:38:8F:C3:4D:5C:80:98:E1:65:95:38:D5:2B:69
            X509v3 Basic Constraints: 
                CA:FALSE
            X509v3 Authority Key Identifier: 
                keyid:88:27:17:09:A9:B6:18:60:8B:EC:EB:BA:F6:47:59:C5:52:54:A3:B7

            X509v3 Certificate Policies: 
                Policy: 1.2.840.113635.100.5.1
                  CPS: http://www.apple.com/appleca/
                  User Notice:
                    Explicit Text: Reliance on this certificate by any party assumes acceptance of the then applicable standard terms and conditions of use, certificate policy and certification practice statements.

            X509v3 CRL Distribution Points: 
                URI:http://crl.apple.com/wwdrca.crl

            X509v3 Key Usage: 
                Digital Signature
            X509v3 Extended Key Usage: 
                TLS Web Client Authentication, 1.2.840.113635.100.4.14
            1.2.840.113635.100.6.3.2: 
                ..
            1.2.840.113635.100.6.1.16: 
                ..pass.void-star.com.meepedoo
    Signature Algorithm: sha1WithRSAEncryption
        5d:e8:2d:5a:d7:65:9e:92:dd:bf:66:1c:04:99:08:a9:40:b7:
        92:dc:fa:d4:c8:8c:cf:ad:3a:99:22:34:0c:0f:72:c9:4f:7f:
        c5:90:dc:8a:5d:47:c0:dd:ee:47:f7:01:81:6a:06:61:66:c3:
        44:a1:0b:96:e5:70:a2:2f:c3:bb:98:d0:bf:07:0a:3d:56:d1:
        95:01:08:16:6e:9a:5e:6b:45:ce:d9:b5:78:09:0f:eb:ff:11:
        a6:9a:eb:65:f3:b3:b1:14:a5:6f:97:a1:53:31:65:a6:e0:ea:
        e6:70:2f:df:5a:f9:b5:e4:59:2b:33:d4:a0:a3:4c:c6:61:c8:
        56:5a:ca:be:4e:ac:12:c7:d3:1e:e5:b6:e3:de:04:c4:63:e5:
        0e:33:4d:b9:33:92:7e:11:a4:ee:85:2b:65:00:7f:a5:dc:f6:
        19:5b:69:37:fe:61:a7:e6:45:27:c5:1c:3a:b6:46:76:fb:f3:
        56:93:00:2a:4f:b4:1e:d3:ed:75:8c:32:e5:09:c8:28:84:46:
        29:4d:db:8f:e9:6e:1c:9e:bb:76:74:6a:8f:63:d5:04:1a:b3:
        16:42:cc:70:4c:b1:88:e2:6d:58:bd:52:d2:3c:dc:52:9d:de:
        37:94:20:00:07:6e:06:48:e7:17:86:44:a2:3a:23:07:c1:74:
        ef:6f:2a:a5
-----BEGIN CERTIFICATE-----
MIIF8zCCBNugAwIBAgIID1AR2I8HCb8wDQYJKoZIhvcNAQEFBQAwgZYxCzAJBgNV
BAYTAlVTMRMwEQYDVQQKDApBcHBsZSBJbmMuMSwwKgYDVQQLDCNBcHBsZSBXb3Js
ZHdpZGUgRGV2ZWxvcGVyIFJlbGF0aW9uczFEMEIGA1UEAww7QXBwbGUgV29ybGR3
aWRlIERldmVsb3BlciBSZWxhdGlvbnMgQ2VydGlmaWNhdGlvbiBBdXRob3JpdHkw
HhcNMTIwNjI2MjExODQwWhcNMTMwNjI2MjExODQwWjCBmDErMCkGCgmSJomT8ixk
AQEMG3Bhc3Mudm9pZC1zdGFyLmNvbS5tZWVwZWRvbzEyMDAGA1UEAwwpUGFzcyBU
eXBlIElEOiBwYXNzLnZvaWQtc3Rhci5jb20ubWVlcGVkb28xEzARBgNVBAsMClVM
NzM2S1lRUjkxEzARBgNVBAoMCkVyaWMgTW9udGkxCzAJBgNVBAYTAlVTMIIBIjAN
BgkqhkiG9w0BAQEFAAOCAQ8AMIIBCgKCAQEAr/mmn8CLpVbytpcKhkLQ8VQBmJWf
2WkrnL6wtfSkrZ7m746l3FDQziqJqUHORDavkDPnVnaeaJHfxue4IfLVddIqFzqd
SuDM0pSQ5/I2LxxBAAJ2Rf7Cavw2lud+WQDyhZ4x/6OboLhtlZ7k8cTQ6XxwYVID
OVy4ijRpIoLFRPnNoSVXJobkMdUIyZ1fc0QQIW2ZkHT2afsg3qlGSaOplqtmROa9
VmWOfd0HfnG9Ew+xUAev63F4r0bVcTna7fLR242BZH9WxofxfqWj9J8CAbnQNn+H
8g3Wk07L2DKcWupEB2RqnxwUjpo6DqOGLOggKvEy4BEqE4rTTHNeq3D6TQIDAQAB
o4ICPzCCAjswPQYIKwYBBQUHAQEEMTAvMC0GCCsGAQUFBzABhiFodHRwOi8vb2Nz
cC5hcHBsZS5jb20vb2NzcC13d2RyMDMwHQYDVR0OBBYEFAKHJADKUziPw01cgJjh
ZZU41StpMAkGA1UdEwQCMAAwHwYDVR0jBBgwFoAUiCcXCam2GGCL7Ou69kdZxVJU
o7cwggEPBgNVHSAEggEGMIIBAjCB/wYJKoZIhvdjZAUBMIHxMCkGCCsGAQUFBwIB
Fh1odHRwOi8vd3d3LmFwcGxlLmNvbS9hcHBsZWNhLzCBwwYIKwYBBQUHAgIwgbYM
gbNSZWxpYW5jZSBvbiB0aGlzIGNlcnRpZmljYXRlIGJ5IGFueSBwYXJ0eSBhc3N1
bWVzIGFjY2VwdGFuY2Ugb2YgdGhlIHRoZW4gYXBwbGljYWJsZSBzdGFuZGFyZCB0
ZXJtcyBhbmQgY29uZGl0aW9ucyBvZiB1c2UsIGNlcnRpZmljYXRlIHBvbGljeSBh
bmQgY2VydGlmaWNhdGlvbiBwcmFjdGljZSBzdGF0ZW1lbnRzLjAwBgNVHR8EKTAn
MCWgI6Ahhh9odHRwOi8vY3JsLmFwcGxlLmNvbS93d2RyY2EuY3JsMAsGA1UdDwQE
AwIHgDAeBgNVHSUEFzAVBggrBgEFBQcDAgYJKoZIhvdjZAQOMBAGCiqGSIb3Y2QG
AwIEAgUAMCsGCiqGSIb3Y2QGARAEHQwbcGFzcy52b2lkLXN0YXIuY29tLm1lZXBl
ZG9vMA0GCSqGSIb3DQEBBQUAA4IBAQBd6C1a12Wekt2/ZhwEmQipQLeS3PrUyIzP
rTqZIjQMD3LJT3/FkNyKXUfA3e5H9wGBagZhZsNEoQuW5XCiL8O7mNC/Bwo9VtGV
AQgWbppea0XO2bV4CQ/r/xGmmutl87OxFKVvl6FTMWWm4OrmcC/fWvm15FkrM9Sg
o0zGYchWWsq+TqwSx9Me5bbj3gTEY+UOM025M5J+EaTuhStlAH+l3PYZW2k3/mGn
5kUnxRw6tkZ2+/NWkwAqT7Qe0+11jDLlCcgohEYpTduP6W4cnrt2dGqPY9UEGrMW
QsxwTLGI4m1YvVLSPNxSnd43lCAAB24GSOcXhkSiOiMHwXTvbyql
-----END CERTIFICATE-----
