Certificate:
    Data:
        Version: 3 (0x2)
        Serial Number:
            e7:13:70:5d:01:cc:39:d2
        Signature Algorithm: sha1WithRSAEncryption
        Issuer: C=AU, ST=Some-State, L=locality, O=Internet Widgits Pty Ltd, OU=section, CN=example ca/emailAddress=emailaddr@foo.com
        Validity
            Not Before: Sep 14 18:42:25 2012 GMT
            Not After : Sep 14 18:42:25 2013 GMT
        Subject: C=AU, ST=Some-State, L=locality, O=Internet Widgits Pty Ltd, OU=section, CN=example ca/emailAddress=emailaddr@foo.com
        Subject Public Key Info:
            Public Key Algorithm: rsaEncryption
            RSA Public Key: (4096 bit)
                Modulus (4096 bit):
                    00:c0:b4:be:5d:80:c2:19:5f:5c:f4:64:72:2f:3c:
                    0f:d1:6f:f2:69:74:de:ee:86:d2:a9:4e:02:85:d1:
                    e2:b0:84:c8:73:1f:e0:0d:a9:9f:60:e0:53:7f:b3:
                    4e:ed:42:63:3d:19:09:bc:67:a0:13:32:dc:a0:25:
                    ac:09:e1:7e:ae:72:73:4f:a1:9c:76:8c:80:35:e2:
                    75:2e:b2:4a:68:5f:03:83:bc:2e:63:1f:4a:7b:29:
                    80:2c:3e:fe:72:7f:43:ee:7b:59:6f:fc:51:8b:42:
                    0a:1b:b9:bb:5f:14:cd:9e:16:36:dd:05:ef:2c:21:
                    3e:de:39:bc:27:b1:0c:06:6a:49:f8:01:ff:3a:cc:
                    2c:5a:d9:56:0f:81:bc:6b:88:ee:83:72:d9:14:0c:
                    34:08:98:aa:1d:35:c2:34:fd:0c:3b:5d:5a:72:c1:
                    9b:28:ac:04:e1:30:3b:b8:ea:04:a2:48:34:a2:87:
                    3b:1c:b8:fc:89:f6:91:35:42:e9:6e:c7:af:ab:3b:
                    f6:b7:0a:2e:e3:7f:31:45:1d:04:a5:a4:5a:f6:cd:
                    bb:62:f9:49:e0:83:b3:77:df:ee:ba:84:bf:07:fa:
                    29:72:6d:2d:b8:e0:42:10:bd:f9:f3:e4:c6:7e:8a:
                    e8:d7:11:b8:67:14:b4:8c:f5:c4:a9:fa:d9:04:bd:
                    17:7f:b4:d0:a3:b9:c7:df:44:2d:50:dd:ba:7c:01:
                    11:02:23:d9:9c:4c:9a:f0:92:2f:4a:b7:0a:72:3f:
                    fc:61:6d:08:3b:cc:99:3c:65:78:92:76:63:a3:c4:
                    cb:1f:b8:ca:4a:7a:b0:c4:22:b2:9a:13:b6:ae:19:
                    60:7a:bd:37:1b:93:0e:02:9f:22:e4:dc:21:24:11:
                    4d:9d:9e:30:7f:7b:92:48:2d:4d:b9:1a:2a:58:c6:
                    77:4b:70:cf:c1:a6:6d:06:f9:54:83:bf:27:73:8f:
                    cc:8b:5c:7a:d2:79:56:75:41:d4:77:5f:9c:39:30:
                    02:0c:c5:0b:0c:32:6b:23:39:68:26:d5:f7:ef:b1:
                    7f:1e:c6:1d:a9:39:64:15:dd:b0:df:f5:d6:cf:c0:
                    73:b2:d0:f2:2a:f4:6e:9e:d8:9c:5b:9f:bf:ce:e7:
                    69:80:bf:69:d2:20:3b:aa:55:49:3e:fa:50:fc:63:
                    7e:8d:90:46:9a:7d:eb:9c:ca:17:bc:36:d7:88:e0:
                    d9:c4:29:8c:2f:bc:ce:9d:e5:35:d5:ec:d7:a6:93:
                    49:2a:84:3b:b6:37:1e:0c:57:f1:04:bb:2f:ea:75:
                    75:6a:de:0c:71:42:e6:e9:14:5e:ee:55:1a:1f:a4:
                    87:21:2b:12:98:8b:17:63:c8:84:88:43:46:f4:8f:
                    b2:b7:5b
                Exponent: 65537 (0x10001)
        X509v3 extensions:
            X509v3 Subject Key Identifier: 
                28:88:9A:FA:67:E6:16:C3:67:92:46:15:0B:46:12:08:54:45:AC:3A
            X509v3 Authority Key Identifier: 
                keyid:28:88:9A:FA:67:E6:16:C3:67:92:46:15:0B:46:12:08:54:45:AC:3A
                DirName:/C=AU/ST=Some-State/L=locality/O=Internet Widgits Pty Ltd/OU=section/CN=example ca/emailAddress=emailaddr@foo.com
                serial:E7:13:70:5D:01:CC:39:D2

            X509v3 Basic Constraints: 
                CA:TRUE
    Signature Algorithm: sha1WithRSAEncryption
        81:b5:c6:b6:4a:10:f5:8a:98:30:96:07:46:8e:bb:6b:b3:c1:
        2e:fa:f3:59:ca:e1:c6:85:70:b6:bc:fe:9f:77:0a:70:1a:56:
        fb:46:71:d6:ee:90:cf:f5:a6:1d:4c:3c:24:76:32:fe:ec:55:
        d6:c4:cd:3a:ee:dd:2d:97:b6:3b:d3:3b:3f:02:21:1c:ba:03:
        48:b8:8d:03:a7:b8:70:81:b6:43:82:82:5f:34:eb:b1:a7:01:
        cf:e4:f8:f7:d0:d8:5a:b6:c4:a6:0b:4e:e2:cc:4d:be:d4:99:
        f4:37:54:6f:a7:7d:63:7c:7f:25:34:bb:e0:f4:e2:cf:31:c3:
        99:4e:9e:a0:d1:f0:3b:15:8e:95:2e:76:a7:14:f0:3b:0c:e7:
        42:8d:12:53:f9:24:d7:f9:90:93:71:56:9a:5f:35:8e:f3:29:
        1e:d8:d2:71:fe:d8:d0:eb:d9:61:d5:3e:dd:d8:8f:6a:10:0d:
        7c:f8:2a:1d:ef:24:d0:c1:13:d7:d6:9e:f7:cc:20:62:ea:78:
        71:d1:7a:5f:2e:20:0d:64:38:07:1b:c9:a0:0f:3c:c9:4e:3f:
        b1:84:8c:ae:86:ea:60:c7:84:2f:b6:d6:93:95:8d:36:9f:d2:
        6a:bf:5e:98:1f:f9:da:fd:97:f3:e0:a7:0b:a7:52:30:e5:10:
        89:c1:2c:85:75:07:a4:c7:d4:dc:b5:96:2a:c3:d5:eb:3b:7c:
        fb:a0:55:4c:c1:65:6c:f8:29:74:8b:78:54:7d:a0:d0:9c:32:
        8a:87:48:90:ad:5c:41:fe:ab:16:5a:ad:44:06:1b:c6:4d:e4:
        01:f0:d8:c7:b1:db:bf:ca:fd:31:75:0a:01:70:00:45:e1:2d:
        98:42:d5:36:53:2c:f1:57:93:7d:cd:e6:24:f3:4d:c9:31:ce:
        a6:59:fe:2c:4a:61:56:9d:ad:55:7b:43:c5:48:ee:95:1e:b4:
        0b:8d:4d:53:c7:a9:af:03:01:12:99:06:e8:fe:3a:63:8d:53:
        30:8e:5a:95:64:d4:28:04:d8:bf:72:30:a1:fb:10:a7:84:15:
        1b:13:a0:82:f3:38:5b:95:57:79:16:24:49:1a:1c:c5:43:90:
        04:dd:5f:7b:d6:67:36:e1:41:fe:9d:20:a4:08:9c:14:9d:e3:
        30:5c:1f:8e:46:f7:89:6b:f3:04:b9:75:b6:b6:33:49:54:99:
        8e:9d:b0:f5:2b:51:61:3a:48:fc:f5:73:32:cd:a2:f6:9d:2a:
        52:92:66:ae:a9:1f:06:b0:4d:63:29:83:e8:80:61:af:99:76:
        bc:fd:97:d4:98:0b:49:d5:94:24:b1:34:85:31:0a:4e:6c:c3:
        0d:de:be:85:1d:49:41:6c
-----BEGIN CERTIFICATE-----
MIIG0zCCBLugAwIBAgIJAOcTcF0BzDnSMA0GCSqGSIb3DQEBBQUAMIGhMQswCQYD
VQQGEwJBVTETMBEGA1UECBMKU29tZS1TdGF0ZTERMA8GA1UEBxMIbG9jYWxpdHkx
ITAfBgNVBAoTGEludGVybmV0IFdpZGdpdHMgUHR5IEx0ZDEQMA4GA1UECxMHc2Vj
dGlvbjETMBEGA1UEAxMKZXhhbXBsZSBjYTEgMB4GCSqGSIb3DQEJARYRZW1haWxh
ZGRyQGZvby5jb20wHhcNMTIwOTE0MTg0MjI1WhcNMTMwOTE0MTg0MjI1WjCBoTEL
MAkGA1UEBhMCQVUxEzARBgNVBAgTClNvbWUtU3RhdGUxETAPBgNVBAcTCGxvY2Fs
aXR5MSEwHwYDVQQKExhJbnRlcm5ldCBXaWRnaXRzIFB0eSBMdGQxEDAOBgNVBAsT
B3NlY3Rpb24xEzARBgNVBAMTCmV4YW1wbGUgY2ExIDAeBgkqhkiG9w0BCQEWEWVt
YWlsYWRkckBmb28uY29tMIICIjANBgkqhkiG9w0BAQEFAAOCAg8AMIICCgKCAgEA
wLS+XYDCGV9c9GRyLzwP0W/yaXTe7obSqU4ChdHisITIcx/gDamfYOBTf7NO7UJj
PRkJvGegEzLcoCWsCeF+rnJzT6GcdoyANeJ1LrJKaF8Dg7wuYx9KeymALD7+cn9D
7ntZb/xRi0IKG7m7XxTNnhY23QXvLCE+3jm8J7EMBmpJ+AH/OswsWtlWD4G8a4ju
g3LZFAw0CJiqHTXCNP0MO11acsGbKKwE4TA7uOoEokg0ooc7HLj8ifaRNULpbsev
qzv2twou438xRR0EpaRa9s27YvlJ4IOzd9/uuoS/B/opcm0tuOBCEL358+TGforo
1xG4ZxS0jPXEqfrZBL0Xf7TQo7nH30QtUN26fAERAiPZnEya8JIvSrcKcj/8YW0I
O8yZPGV4knZjo8TLH7jKSnqwxCKymhO2rhlger03G5MOAp8i5NwhJBFNnZ4wf3uS
SC1NuRoqWMZ3S3DPwaZtBvlUg78nc4/Mi1x60nlWdUHUd1+cOTACDMULDDJrIzlo
JtX377F/HsYdqTlkFd2w3/XWz8BzstDyKvRunticW5+/zudpgL9p0iA7qlVJPvpQ
/GN+jZBGmn3rnMoXvDbXiODZxCmML7zOneU11ezXppNJKoQ7tjceDFfxBLsv6nV1
at4McULm6RRe7lUaH6SHISsSmIsXY8iEiENG9I+yt1sCAwEAAaOCAQowggEGMB0G
A1UdDgQWBBQoiJr6Z+YWw2eSRhULRhIIVEWsOjCB1gYDVR0jBIHOMIHLgBQoiJr6
Z+YWw2eSRhULRhIIVEWsOqGBp6SBpDCBoTELMAkGA1UEBhMCQVUxEzARBgNVBAgT
ClNvbWUtU3RhdGUxETAPBgNVBAcTCGxvY2FsaXR5MSEwHwYDVQQKExhJbnRlcm5l
dCBXaWRnaXRzIFB0eSBMdGQxEDAOBgNVBAsTB3NlY3Rpb24xEzARBgNVBAMTCmV4
YW1wbGUgY2ExIDAeBgkqhkiG9w0BCQEWEWVtYWlsYWRkckBmb28uY29tggkA5xNw
XQHMOdIwDAYDVR0TBAUwAwEB/zANBgkqhkiG9w0BAQUFAAOCAgEAgbXGtkoQ9YqY
MJYHRo67a7PBLvrzWcrhxoVwtrz+n3cKcBpW+0Zx1u6Qz/WmHUw8JHYy/uxV1sTN
Ou7dLZe2O9M7PwIhHLoDSLiNA6e4cIG2Q4KCXzTrsacBz+T499DYWrbEpgtO4sxN
vtSZ9DdUb6d9Y3x/JTS74PTizzHDmU6eoNHwOxWOlS52pxTwOwznQo0SU/kk1/mQ
k3FWml81jvMpHtjScf7Y0OvZYdU+3diPahANfPgqHe8k0MET19ae98wgYup4cdF6
Xy4gDWQ4BxvJoA88yU4/sYSMrobqYMeEL7bWk5WNNp/Sar9emB/52v2X8+CnC6dS
MOUQicEshXUHpMfU3LWWKsPV6zt8+6BVTMFlbPgpdIt4VH2g0JwyiodIkK1cQf6r
FlqtRAYbxk3kAfDYx7Hbv8r9MXUKAXAAReEtmELVNlMs8VeTfc3mJPNNyTHOpln+
LEphVp2tVXtDxUjulR60C41NU8eprwMBEpkG6P46Y41TMI5alWTUKATYv3IwofsQ
p4QVGxOggvM4W5VXeRYkSRocxUOQBN1fe9ZnNuFB/p0gpAicFJ3jMFwfjkb3iWvz
BLl1trYzSVSZjp2w9StRYTpI/PVzMs2i9p0qUpJmrqkfBrBNYymD6IBhr5l2vP2X
1JgLSdWUJLE0hTEKTmzDDd6+hR1JQWw=
-----END CERTIFICATE-----
