Certificate:
    Data:
        Version: 3 (0x2)
        Serial Number:
            08:bb:b0:25:47:13:4b:c9:b1:10:d7:c1:a2:12:59:c5
        Signature Algorithm: sha1WithRSAEncryption
        Issuer: C=US, O=DigiCert Inc, OU=www.digicert.com, CN=DigiCert High Assurance EV Root CA
        Validity
            Not Before: Nov 10 00:00:00 2006 GMT
            Not After : Nov 10 00:00:00 2021 GMT
        Subject: C=US, O=DigiCert Inc, OU=www.digicert.com, CN=DigiCert High Assurance EV CA-1
        Subject Public Key Info:
            Public Key Algorithm: rsaEncryption
            RSA Public Key: (2048 bit)
                Modulus (2048 bit):
                    00:f3:96:62:d8:75:6e:19:ff:3f:34:7c:49:4f:31:
                    7e:0d:04:4e:99:81:e2:b3:85:55:91:30:b1:c0:af:
                    70:bb:2c:a8:e7:18:aa:3f:78:f7:90:68:52:86:01:
                    88:97:e2:3b:06:65:90:aa:bd:65:76:c2:ec:be:10:
                    5b:37:78:83:60:75:45:c6:bd:74:aa:b6:9f:a4:3a:
                    01:50:17:c4:39:69:b9:f1:4f:ef:82:c1:ca:f3:4a:
                    db:cc:9e:50:4f:4d:40:a3:3a:90:e7:86:66:bc:f0:
                    3e:76:28:4c:d1:75:80:9e:6a:35:14:35:03:9e:db:
                    0c:8c:c2:28:ad:50:b2:ce:f6:91:a3:c3:a5:0a:58:
                    49:f6:75:44:6c:ba:f9:ce:e9:ab:3a:02:e0:4d:f3:
                    ac:e2:7a:e0:60:22:05:3c:82:d3:52:e2:f3:9c:47:
                    f8:3b:d8:b2:4b:93:56:4a:bf:70:ab:3e:e9:68:c8:
                    1d:8f:58:1d:2a:4d:5e:27:3d:ad:0a:59:2f:5a:11:
                    20:40:d9:68:04:68:2d:f4:c0:84:0b:0a:1b:78:df:
                    ed:1a:58:dc:fb:41:5a:6d:6b:f2:ed:1c:ee:5c:32:
                    b6:5c:ec:d7:a6:03:32:a6:e8:de:b7:28:27:59:88:
                    80:ff:7b:ad:89:58:d5:1e:14:a4:f2:b0:70:d4:a0:
                    3e:a7
                Exponent: 65537 (0x10001)
        X509v3 extensions:
            X509v3 Key Usage: critical
                Digital Signature, Certificate Sign, CRL Sign
            X509v3 Extended Key Usage: 
                TLS Web Server Authentication, TLS Web Client Authentication, Code Signing, E-mail Protection, Time Stamping
            X509v3 Certificate Policies: 
                Policy: 2.16.840.1.114412.2.1
                  CPS: http://www.digicert.com/ssl-cps-repository.htm
                  User Notice:
                    Explicit Text: 

            X509v3 Basic Constraints: critical
                CA:TRUE
            Authority Information Access: 
                OCSP - URI:http://ocsp.digicert.com
                CA Issuers - URI:http://www.digicert.com/CACerts/DigiCertHighAssuranceEVRootCA.crt

            X509v3 CRL Distribution Points: 
                URI:http://crl3.digicert.com/DigiCertHighAssuranceEVRootCA.crl
                URI:http://crl4.digicert.com/DigiCertHighAssuranceEVRootCA.crl

            X509v3 Subject Key Identifier: 
                4C:58:CB:25:F0:41:4F:52:F4:28:C8:81:43:9B:A6:A8:A0:E6:92:E5
            X509v3 Authority Key Identifier: 
                keyid:B1:3E:C3:69:03:F8:BF:47:01:D4:98:26:1A:08:02:EF:63:64:2B:C3

    Signature Algorithm: sha1WithRSAEncryption
        50:1e:43:b0:f7:4d:29:96:5b:bb:a7:d3:0a:b5:b5:d5:d0:27:
        aa:f9:af:c7:25:d1:95:d5:2f:5a:53:bd:42:07:7e:78:49:ca:
        0b:eb:4c:55:e2:ea:2f:7f:49:ad:c7:ff:d1:2d:3e:9c:a0:64:
        2b:51:9e:91:26:28:bb:87:bb:75:7c:bc:a1:fd:66:68:2e:4c:
        4a:16:cc:fe:06:cf:31:ea:80:6e:e4:bd:e8:03:72:f6:25:b5:
        41:83:61:d0:97:0a:27:1d:b3:f7:2b:32:84:8f:5b:e7:cc:3f:
        e2:2c:67:86:94:f4:b2:2b:6c:52:3b:67:2a:8d:58:95:00:14:
        46:24:ac:0b:fa:c9:8e:c7:26:80:df:d1:e1:97:e3:f8:bb:68:
        c6:9c:bd:be:08:54:3b:10:32:7c:81:1f:2b:28:95:a8:41:0a:
        c6:d0:30:66:b4:e9:f2:a2:00:69:20:07:ca:82:4c:1e:cf:a7:
        98:b8:0c:ee:cd:16:1c:be:1a:63:d4:c0:99:f6:67:b2:f0:8e:
        17:2d:58:c2:80:aa:5d:96:c7:b3:28:ed:f0:da:8e:b6:47:1b:
        8f:4e:15:f1:97:4c:0b:4b:af:81:d4:46:94:62:2c:43:a7:3c:
        25:48:19:63:f2:5c:aa:15:89:76:84:85:73:91:7d:28:3c:09:
        83:82:bc:f7
-----BEGIN CERTIFICATE-----
MIIG4zCCBcugAwIBAgIQCLuwJUcTS8mxENfBohJZxTANBgkqhkiG9w0BAQUFADBs
MQswCQYDVQQGEwJVUzEVMBMGA1UEChMMRGlnaUNlcnQgSW5jMRkwFwYDVQQLExB3
d3cuZGlnaWNlcnQuY29tMSswKQYDVQQDEyJEaWdpQ2VydCBIaWdoIEFzc3VyYW5j
ZSBFViBSb290IENBMB4XDTA2MTExMDAwMDAwMFoXDTIxMTExMDAwMDAwMFowaTEL
MAkGA1UEBhMCVVMxFTATBgNVBAoTDERpZ2lDZXJ0IEluYzEZMBcGA1UECxMQd3d3
LmRpZ2ljZXJ0LmNvbTEoMCYGA1UEAxMfRGlnaUNlcnQgSGlnaCBBc3N1cmFuY2Ug
RVYgQ0EtMTCCASIwDQYJKoZIhvcNAQEBBQADggEPADCCAQoCggEBAPOWYth1bhn/
PzR8SU8xfg0ETpmB4rOFVZEwscCvcLssqOcYqj9495BoUoYBiJfiOwZlkKq9ZXbC
7L4QWzd4g2B1Rca9dKq2n6Q6AVAXxDlpufFP74LByvNK28yeUE9NQKM6kOeGZrzw
PnYoTNF1gJ5qNRQ1A57bDIzCKK1Qss72kaPDpQpYSfZ1RGy6+c7pqzoC4E3zrOJ6
4GAiBTyC01Li85xH+DvYskuTVkq/cKs+6WjIHY9YHSpNXic9rQpZL1oRIEDZaARo
LfTAhAsKG3jf7RpY3PtBWm1r8u0c7lwytlzs16YDMqbo3rcoJ1mIgP97rYlY1R4U
pPKwcNSgPqcCAwEAAaOCA4IwggN+MA4GA1UdDwEB/wQEAwIBhjA7BgNVHSUENDAy
BggrBgEFBQcDAQYIKwYBBQUHAwIGCCsGAQUFBwMDBggrBgEFBQcDBAYIKwYBBQUH
AwgwggHEBgNVHSAEggG7MIIBtzCCAbMGCWCGSAGG/WwCATCCAaQwOgYIKwYBBQUH
AgEWLmh0dHA6Ly93d3cuZGlnaWNlcnQuY29tL3NzbC1jcHMtcmVwb3NpdG9yeS5o
dG0wggFkBggrBgEFBQcCAjCCAVYeggFSAEEAbgB5ACAAdQBzAGUAIABvAGYAIAB0
AGgAaQBzACAAQwBlAHIAdABpAGYAaQBjAGEAdABlACAAYwBvAG4AcwB0AGkAdAB1
AHQAZQBzACAAYQBjAGMAZQBwAHQAYQBuAGMAZQAgAG8AZgAgAHQAaABlACAARABp
AGcAaQBDAGUAcgB0ACAARQBWACAAQwBQAFMAIABhAG4AZAAgAHQAaABlACAAUgBl
AGwAeQBpAG4AZwAgAFAAYQByAHQAeQAgAEEAZwByAGUAZQBtAGUAbgB0ACAAdwBo
AGkAYwBoACAAbABpAG0AaQB0ACAAbABpAGEAYgBpAGwAaQB0AHkAIABhAG4AZAAg
AGEAcgBlACAAaQBuAGMAbwByAHAAbwByAGEAdABlAGQAIABoAGUAcgBlAGkAbgAg
AGIAeQAgAHIAZQBmAGUAcgBlAG4AYwBlAC4wDwYDVR0TAQH/BAUwAwEB/zCBgwYI
KwYBBQUHAQEEdzB1MCQGCCsGAQUFBzABhhhodHRwOi8vb2NzcC5kaWdpY2VydC5j
b20wTQYIKwYBBQUHMAKGQWh0dHA6Ly93d3cuZGlnaWNlcnQuY29tL0NBQ2VydHMv
RGlnaUNlcnRIaWdoQXNzdXJhbmNlRVZSb290Q0EuY3J0MIGPBgNVHR8EgYcwgYQw
QKA+oDyGOmh0dHA6Ly9jcmwzLmRpZ2ljZXJ0LmNvbS9EaWdpQ2VydEhpZ2hBc3N1
cmFuY2VFVlJvb3RDQS5jcmwwQKA+oDyGOmh0dHA6Ly9jcmw0LmRpZ2ljZXJ0LmNv
bS9EaWdpQ2VydEhpZ2hBc3N1cmFuY2VFVlJvb3RDQS5jcmwwHQYDVR0OBBYEFExY
yyXwQU9S9CjIgUObpqig5pLlMB8GA1UdIwQYMBaAFLE+w2kD+L9HAdSYJhoIAu9j
ZCvDMA0GCSqGSIb3DQEBBQUAA4IBAQBQHkOw900pllu7p9MKtbXV0Ceq+a/HJdGV
1S9aU71CB354ScoL60xV4uovf0mtx//RLT6coGQrUZ6RJii7h7t1fLyh/WZoLkxK
Fsz+Bs8x6oBu5L3oA3L2JbVBg2HQlwonHbP3KzKEj1vnzD/iLGeGlPSyK2xSO2cq
jViVABRGJKwL+smOxyaA39Hhl+P4u2jGnL2+CFQ7EDJ8gR8rKJWoQQrG0DBmtOny
ogBpIAfKgkwez6eYuAzuzRYcvhpj1MCZ9mey8I4XLVjCgKpdlsezKO3w2o62RxuP
ThXxl0wLS6+B1EaUYixDpzwlSBlj8lyqFYl2hIVzkX0oPAmDgrz3
-----END CERTIFICATE-----
