Certificate:
    Data:
        Version: 3 (0x2)
        Serial Number:
            0e:77:76:8a:5d:07:f0:e5:79:59:ca:2a:9d:50:82:b5
        Signature Algorithm: sha1WithRSAEncryption
        Issuer: C=US, O=DigiCert Inc, OU=www.digicert.com, CN=DigiCert High Assurance EV CA-1
        Validity
            Not Before: May 27 00:00:00 2011 GMT
            Not After : Jul 29 12:00:00 2013 GMT
        Subject: businessCategory=Private Organization/1.3.6.1.4.1.311.60.2.1.3=US/1.3.6.1.4.1.311.60.2.1.2=California/serialNumber=C3268102, C=US, ST=California, L=San Francisco, O=GitHub, Inc., CN=github.com
        Subject Public Key Info:
            Public Key Algorithm: rsaEncryption
            RSA Public Key: (2048 bit)
                Modulus (2048 bit):
                    00:ed:d3:89:c3:5d:70:72:09:f3:33:4f:1a:72:74:
                    d9:b6:5a:95:50:bb:68:61:9f:f7:fb:1f:19:e1:da:
                    04:31:af:15:7c:1a:7f:f9:73:af:1d:e5:43:2b:56:
                    09:00:45:69:4a:e8:c4:5b:df:c2:77:52:51:19:5b:
                    d1:2b:d9:39:65:36:a0:32:19:1c:41:73:fb:32:b2:
                    3d:9f:98:ec:82:5b:0b:37:64:39:2c:b7:10:83:72:
                    cd:f0:ea:24:4b:fa:d9:94:2e:c3:85:15:39:a9:3a:
                    f6:88:da:f4:27:89:a6:95:4f:84:a2:37:4e:7c:25:
                    78:3a:c9:83:6d:02:17:95:78:7d:47:a8:55:83:ee:
                    13:c8:19:1a:b3:3c:f1:5f:fe:3b:02:e1:85:fb:11:
                    66:ab:09:5d:9f:4c:43:f0:c7:24:5e:29:72:28:ce:
                    d4:75:68:4f:24:72:29:ae:39:28:fc:df:8d:4f:4d:
                    83:73:74:0c:6f:11:9b:a7:dd:62:de:ff:e2:eb:17:
                    e6:ff:0c:bf:c0:2d:31:3b:d6:59:a2:f2:dd:87:4a:
                    48:7b:6d:33:11:14:4d:34:9f:32:38:f6:c8:19:9d:
                    f1:b6:3d:c5:46:ef:51:0b:8a:c6:33:ed:48:61:c4:
                    1d:17:1b:bd:7c:b6:67:e9:39:cf:a5:52:80:0a:f4:
                    ea:cd
                Exponent: 65537 (0x10001)
        X509v3 extensions:
            X509v3 Authority Key Identifier: 
                keyid:4C:58:CB:25:F0:41:4F:52:F4:28:C8:81:43:9B:A6:A8:A0:E6:92:E5

            X509v3 Subject Key Identifier: 
                87:D1:8F:19:6E:E4:87:6F:53:8C:77:91:07:50:DF:A3:BF:55:47:20
            X509v3 Subject Alternative Name: 
                DNS:github.com, DNS:www.github.com
            Authority Information Access: 
                OCSP - URI:http://ocsp.digicert.com
                CA Issuers - URI:http://www.digicert.com/CACerts/DigiCertHighAssuranceEVCA-1.crt

            X509v3 Basic Constraints: critical
                CA:FALSE
            X509v3 CRL Distribution Points: 
                URI:http://crl3.digicert.com/ev2009a.crl
                URI:http://crl4.digicert.com/ev2009a.crl

            X509v3 Certificate Policies: 
                Policy: 2.16.840.1.114412.2.1
                  CPS: http://www.digicert.com/ssl-cps-repository.htm
                  User Notice:
                    Explicit Text: 

            X509v3 Extended Key Usage: 
                TLS Web Server Authentication, TLS Web Client Authentication
            Netscape Cert Type: 
                SSL Client, SSL Server
            X509v3 Key Usage: critical
                Digital Signature, Key Encipherment
    Signature Algorithm: sha1WithRSAEncryption
        14:52:71:1f:86:9d:6d:35:3e:86:bb:66:1a:8b:85:98:b9:00:
        4c:cb:42:b5:46:fc:06:e7:44:39:c8:e8:52:d8:11:14:23:b3:
        72:96:e9:14:94:9e:2f:00:28:f7:d5:04:45:40:00:c6:f4:57:
        42:42:de:09:89:97:11:0d:14:5c:6b:bd:0b:f7:18:a3:5f:67:
        02:f3:09:38:63:bf:c1:12:9d:30:ba:8e:a5:54:74:59:53:67:
        a1:1b:50:5b:26:da:fd:13:7e:59:17:bf:49:ef:94:7e:45:a4:
        fd:3a:49:32:f0:6a:ff:89:8d:a9:61:a9:aa:9b:96:46:c8:1c:
        e0:18:1c:e6:fb:82:f4:0a:ab:52:a6:ca:e8:54:22:d9:db:2a:
        3d:5a:22:7b:80:ea:07:05:d4:f9:c7:f0:53:59:5f:bb:77:7e:
        de:93:70:41:4e:23:cb:78:79:79:c4:2e:ea:d7:66:2a:18:f7:
        d1:c5:7c:e2:12:78:82:8d:1d:ec:82:9e:01:a2:e5:02:be:78:
        a1:b9:59:58:c5:4c:6f:4f:a5:31:b4:49:5b:5e:98:1e:2e:38:
        f6:19:c4:39:a2:4a:fb:79:05:b8:f2:59:e5:26:12:70:ad:c0:
        e8:75:23:1f:18:d1:0b:e0:9f:65:e4:c3:d7:49:87:5b:72:6c:
        b1:2f:ac:6f
-----BEGIN CERTIFICATE-----
MIIHKjCCBhKgAwIBAgIQDnd2il0H8OV5WcoqnVCCtTANBgkqhkiG9w0BAQUFADBp
MQswCQYDVQQGEwJVUzEVMBMGA1UEChMMRGlnaUNlcnQgSW5jMRkwFwYDVQQLExB3
d3cuZGlnaWNlcnQuY29tMSgwJgYDVQQDEx9EaWdpQ2VydCBIaWdoIEFzc3VyYW5j
ZSBFViBDQS0xMB4XDTExMDUyNzAwMDAwMFoXDTEzMDcyOTEyMDAwMFowgcoxHTAb
BgNVBA8MFFByaXZhdGUgT3JnYW5pemF0aW9uMRMwEQYLKwYBBAGCNzwCAQMTAlVT
MRswGQYLKwYBBAGCNzwCAQITCkNhbGlmb3JuaWExETAPBgNVBAUTCEMzMjY4MTAy
MQswCQYDVQQGEwJVUzETMBEGA1UECBMKQ2FsaWZvcm5pYTEWMBQGA1UEBxMNU2Fu
IEZyYW5jaXNjbzEVMBMGA1UEChMMR2l0SHViLCBJbmMuMRMwEQYDVQQDEwpnaXRo
dWIuY29tMIIBIjANBgkqhkiG9w0BAQEFAAOCAQ8AMIIBCgKCAQEA7dOJw11wcgnz
M08acnTZtlqVULtoYZ/3+x8Z4doEMa8VfBp/+XOvHeVDK1YJAEVpSujEW9/Cd1JR
GVvRK9k5ZTagMhkcQXP7MrI9n5jsglsLN2Q5LLcQg3LN8OokS/rZlC7DhRU5qTr2
iNr0J4mmlU+EojdOfCV4OsmDbQIXlXh9R6hVg+4TyBkaszzxX/47AuGF+xFmqwld
n0xD8MckXilyKM7UdWhPJHIprjko/N+NT02Dc3QMbxGbp91i3v/i6xfm/wy/wC0x
O9ZZovLdh0pIe20zERRNNJ8yOPbIGZ3xtj3FRu9RC4rGM+1IYcQdFxu9fLZn6TnP
pVKACvTqzQIDAQABo4IDajCCA2YwHwYDVR0jBBgwFoAUTFjLJfBBT1L0KMiBQ5um
qKDmkuUwHQYDVR0OBBYEFIfRjxlu5IdvU4x3kQdQ36O/VUcgMCUGA1UdEQQeMByC
CmdpdGh1Yi5jb22CDnd3dy5naXRodWIuY29tMIGBBggrBgEFBQcBAQR1MHMwJAYI
KwYBBQUHMAGGGGh0dHA6Ly9vY3NwLmRpZ2ljZXJ0LmNvbTBLBggrBgEFBQcwAoY/
aHR0cDovL3d3dy5kaWdpY2VydC5jb20vQ0FDZXJ0cy9EaWdpQ2VydEhpZ2hBc3N1
cmFuY2VFVkNBLTEuY3J0MAwGA1UdEwEB/wQCMAAwYQYDVR0fBFowWDAqoCigJoYk
aHR0cDovL2NybDMuZGlnaWNlcnQuY29tL2V2MjAwOWEuY3JsMCqgKKAmhiRodHRw
Oi8vY3JsNC5kaWdpY2VydC5jb20vZXYyMDA5YS5jcmwwggHEBgNVHSAEggG7MIIB
tzCCAbMGCWCGSAGG/WwCATCCAaQwOgYIKwYBBQUHAgEWLmh0dHA6Ly93d3cuZGln
aWNlcnQuY29tL3NzbC1jcHMtcmVwb3NpdG9yeS5odG0wggFkBggrBgEFBQcCAjCC
AVYeggFSAEEAbgB5ACAAdQBzAGUAIABvAGYAIAB0AGgAaQBzACAAQwBlAHIAdABp
AGYAaQBjAGEAdABlACAAYwBvAG4AcwB0AGkAdAB1AHQAZQBzACAAYQBjAGMAZQBw
AHQAYQBuAGMAZQAgAG8AZgAgAHQAaABlACAARABpAGcAaQBDAGUAcgB0ACAAQwBQ
AC8AQwBQAFMAIABhAG4AZAAgAHQAaABlACAAUgBlAGwAeQBpAG4AZwAgAFAAYQBy
AHQAeQAgAEEAZwByAGUAZQBtAGUAbgB0ACAAdwBoAGkAYwBoACAAbABpAG0AaQB0
ACAAbABpAGEAYgBpAGwAaQB0AHkAIABhAG4AZAAgAGEAcgBlACAAaQBuAGMAbwBy
AHAAbwByAGEAdABlAGQAIABoAGUAcgBlAGkAbgAgAGIAeQAgAHIAZQBmAGUAcgBl
AG4AYwBlAC4wHQYDVR0lBBYwFAYIKwYBBQUHAwEGCCsGAQUFBwMCMBEGCWCGSAGG
+EIBAQQEAwIGwDAOBgNVHQ8BAf8EBAMCBaAwDQYJKoZIhvcNAQEFBQADggEBABRS
cR+GnW01Poa7ZhqLhZi5AEzLQrVG/AbnRDnI6FLYERQjs3KW6RSUni8AKPfVBEVA
AMb0V0JC3gmJlxENFFxrvQv3GKNfZwLzCThjv8ESnTC6jqVUdFlTZ6EbUFsm2v0T
flkXv0nvlH5FpP06STLwav+JjalhqaqblkbIHOAYHOb7gvQKq1KmyuhUItnbKj1a
InuA6gcF1PnH8FNZX7t3ft6TcEFOI8t4eXnELurXZioY99HFfOISeIKNHeyCngGi
5QK+eKG5WVjFTG9PpTG0SVtemB4uOPYZxDmiSvt5BbjyWeUmEnCtwOh1Ix8Y0Qvg
n2Xkw9dJh1tybLEvrG8=
-----END CERTIFICATE-----

